Certificate:
    Data:
        Version: 3 (0x2)
        Serial Number: 2 (0x2)
    Signature Algorithm: sha256WithRSAEncryption
        Issuer: C=US, ST=CA, L=SanFrancisco, O=Fort-Funston, OU=MyOrganizationalUnit, CN=Fort-Funston CA/name=EasyRSA/emailAddress=me@myhost.mydomain
        Validity
            Not Before: Dec 21 20:55:07 2021 GMT
            Not After : Dec 19 20:55:07 2031 GMT
        Subject: C=US, ST=CA, L=SanFrancisco, O=Fort-Funston, OU=MyOrganizationalUnit, CN=myclient/name=EasyRSA/emailAddress=me@myhost.mydomain
        Subject Public Key Info:
            Public Key Algorithm: rsaEncryption
                Public-Key: (2048 bit)
                Modulus:
                    00:c7:dd:27:a2:71:9a:cc:5c:be:ef:7e:df:df:46:
                    ea:0e:56:0e:ec:ce:90:a7:91:ff:54:2f:f6:dc:b7:
                    ec:c3:de:24:85:2f:1d:08:24:5b:a2:dd:4a:19:b8:
                    93:b1:31:99:e9:89:be:65:54:a3:8d:40:2a:11:83:
                    62:78:d5:10:49:95:14:de:b9:4a:46:05:0d:bd:00:
                    2a:55:45:05:d1:7e:11:ca:74:94:a9:45:64:81:2b:
                    b9:f3:c2:2a:23:50:1e:37:99:78:8f:7e:46:53:55:
                    cc:12:1a:d7:35:75:b8:29:ea:a2:b0:a6:c7:fe:94:
                    a3:73:54:7c:dd:0a:3b:db:60:ba:81:aa:01:79:21:
                    30:62:02:6b:6d:56:58:ee:e7:01:a2:14:bd:89:9b:
                    74:40:18:19:05:17:74:ce:49:47:d4:b1:a6:4e:05:
                    db:3f:b1:1f:40:c6:51:20:23:00:fb:d0:76:d3:e0:
                    a8:ae:32:d4:f2:95:85:c0:2b:03:e0:7b:be:3c:08:
                    46:be:4f:86:30:68:64:db:20:ca:66:ff:da:df:0d:
                    36:10:06:34:f2:5f:93:21:b1:cb:af:81:b5:c1:a5:
                    86:05:f7:06:e1:ab:02:16:31:b4:f6:46:2e:9f:18:
                    23:98:9f:f5:e2:a0:06:5b:6f:95:87:ac:cc:68:4c:
                    a6:7f
                Exponent: 65537 (0x10001)
        X509v3 extensions:
            X509v3 Basic Constraints: 
                CA:FALSE
            Netscape Comment: 
                Easy-RSA Generated Certificate
            X509v3 Subject Key Identifier: 
                1B:05:03:B3:BA:1F:F2:33:57:D7:75:9D:24:0E:DF:A3:3D:38:9F:94
            X509v3 Authority Key Identifier: 
                keyid:73:48:F4:BD:81:50:57:7E:A4:0C:4F:68:D4:8D:5F:B9:C2:2C:90:D8
                DirName:/C=US/ST=CA/L=SanFrancisco/O=Fort-Funston/OU=MyOrganizationalUnit/CN=Fort-Funston CA/name=EasyRSA/emailAddress=me@myhost.mydomain
                serial:B9:73:38:BF:B3:BA:55:A0

            X509v3 Extended Key Usage: 
                TLS Web Client Authentication
            X509v3 Key Usage: 
                Digital Signature
            X509v3 Subject Alternative Name: 
                DNS:myclient
    Signature Algorithm: sha256WithRSAEncryption
         74:a6:60:20:b9:d8:7a:d3:57:c7:a8:ab:71:26:7d:6a:10:43:
         dc:49:bd:a1:0a:c4:b5:ba:07:1d:ef:83:2f:a8:33:0e:bb:ec:
         af:f8:aa:70:77:ca:b7:38:cd:20:7b:23:87:2d:e9:8d:26:20:
         1c:3a:61:6c:3e:50:2c:7c:3d:86:6c:bb:86:78:e0:97:b8:83:
         d5:42:0b:7e:9d:79:4c:9a:db:f9:35:f1:9d:77:70:73:f6:52:
         7e:20:06:0a:cb:fc:81:39:c0:29:97:bc:dd:06:4b:50:a0:65:
         93:8a:54:27:19:f7:e0:8a:67:e6:b1:fe:c8:e9:54:e5:5d:e6:
         14:55:48:9b:16:da:97:df:a7:59:2b:9c:b0:0b:18:5c:b6:0d:
         4f:c1:7e:be:b4:98:bb:40:16:34:50:9d:a0:67:a6:d6:55:c4:
         18:75:ce:3d:e7:a7:37:dd:28:7c:f7:c5:94:e3:36:5d:e3:5b:
         08:4c:16:09:30:e9:1b:5c:55:ba:4b:83:63:fc:63:a8:51:80:
         e3:e6:72:8b:01:97:39:fc:c1:64:c7:38:c8:d2:f3:1a:59:81:
         07:96:8f:e1:f5:e6:23:bd:f4:d8:0a:ef:6b:10:9f:60:9f:84:
         56:61:6c:35:e3:89:7e:a4:bd:6a:99:ae:cc:fe:b7:28:04:f3:
         03:80:5b:40
-----BEGIN CERTIFICATE-----
MIIFZjCCBE6gAwIBAgIBAjANBgkqhkiG9w0BAQsFADCBtjELMAkGA1UEBhMCVVMx
CzAJBgNVBAgTAkNBMRUwEwYDVQQHEwxTYW5GcmFuY2lzY28xFTATBgNVBAoTDEZv
cnQtRnVuc3RvbjEdMBsGA1UECxMUTXlPcmdhbml6YXRpb25hbFVuaXQxGDAWBgNV
BAMTD0ZvcnQtRnVuc3RvbiBDQTEQMA4GA1UEKRMHRWFzeVJTQTEhMB8GCSqGSIb3
DQEJARYSbWVAbXlob3N0Lm15ZG9tYWluMB4XDTIxMTIyMTIwNTUwN1oXDTMxMTIx
OTIwNTUwN1owga8xCzAJBgNVBAYTAlVTMQswCQYDVQQIEwJDQTEVMBMGA1UEBxMM
U2FuRnJhbmNpc2NvMRUwEwYDVQQKEwxGb3J0LUZ1bnN0b24xHTAbBgNVBAsTFE15
T3JnYW5pemF0aW9uYWxVbml0MREwDwYDVQQDEwhteWNsaWVudDEQMA4GA1UEKRMH
RWFzeVJTQTEhMB8GCSqGSIb3DQEJARYSbWVAbXlob3N0Lm15ZG9tYWluMIIBIjAN
BgkqhkiG9w0BAQEFAAOCAQ8AMIIBCgKCAQEAx90nonGazFy+737f30bqDlYO7M6Q
p5H/VC/23Lfsw94khS8dCCRbot1KGbiTsTGZ6Ym+ZVSjjUAqEYNieNUQSZUU3rlK
RgUNvQAqVUUF0X4RynSUqUVkgSu588IqI1AeN5l4j35GU1XMEhrXNXW4KeqisKbH
/pSjc1R83Qo722C6gaoBeSEwYgJrbVZY7ucBohS9iZt0QBgZBRd0zklH1LGmTgXb
P7EfQMZRICMA+9B20+CorjLU8pWFwCsD4Hu+PAhGvk+GMGhk2yDKZv/a3w02EAY0
8l+TIbHLr4G1waWGBfcG4asCFjG09kYunxgjmJ/14qAGW2+Vh6zMaEymfwIDAQAB
o4IBgjCCAX4wCQYDVR0TBAIwADAtBglghkgBhvhCAQ0EIBYeRWFzeS1SU0EgR2Vu
ZXJhdGVkIENlcnRpZmljYXRlMB0GA1UdDgQWBBQbBQOzuh/yM1fXdZ0kDt+jPTif
lDCB6wYDVR0jBIHjMIHggBRzSPS9gVBXfqQMT2jUjV+5wiyQ2KGBvKSBuTCBtjEL
MAkGA1UEBhMCVVMxCzAJBgNVBAgTAkNBMRUwEwYDVQQHEwxTYW5GcmFuY2lzY28x
FTATBgNVBAoTDEZvcnQtRnVuc3RvbjEdMBsGA1UECxMUTXlPcmdhbml6YXRpb25h
bFVuaXQxGDAWBgNVBAMTD0ZvcnQtRnVuc3RvbiBDQTEQMA4GA1UEKRMHRWFzeVJT
QTEhMB8GCSqGSIb3DQEJARYSbWVAbXlob3N0Lm15ZG9tYWluggkAuXM4v7O6VaAw
EwYDVR0lBAwwCgYIKwYBBQUHAwIwCwYDVR0PBAQDAgeAMBMGA1UdEQQMMAqCCG15
Y2xpZW50MA0GCSqGSIb3DQEBCwUAA4IBAQB0pmAgudh601fHqKtxJn1qEEPcSb2h
CsS1ugcd74MvqDMOu+yv+Kpwd8q3OM0geyOHLemNJiAcOmFsPlAsfD2GbLuGeOCX
uIPVQgt+nXlMmtv5NfGdd3Bz9lJ+IAYKy/yBOcApl7zdBktQoGWTilQnGffgimfm
sf7I6VTlXeYUVUibFtqX36dZK5ywCxhctg1PwX6+tJi7QBY0UJ2gZ6bWVcQYdc49
56c33Sh898WU4zZd41sITBYJMOkbXFW6S4Nj/GOoUYDj5nKLAZc5/MFkxzjI0vMa
WYEHlo/h9eYjvfTYCu9rEJ9gn4RWYWw144l+pL1qma7M/rcoBPMDgFtA
-----END CERTIFICATE-----
